; Function Attrs: nounwind uwtable
define dso_local void @uv_cond_wait(ptr noundef %0, ptr noundef %1) local_unnamed_addr #0 {
  %3 = tail call i32 @pthread_cond_wait(ptr noundef %0, ptr noundef %1) #10
  %.not = icmp eq i32 %3, 0
  br i1 %.not, label %5, label %4

4:                                                ; preds = %2
  tail call void @abort() #11
  unreachable

5:                                                ; preds = %2
  ret void
}